; Function Attrs: nounwind sspstrong uwtable
define dso_local i64 @rb_str_catf(i64 noundef %0, ptr noundef nonnull %1, ...) local_unnamed_addr #0 {
  %3 = alloca i64, align 8
  %4 = alloca [1 x %struct.__va_list_tag], align 16
  call void @llvm.lifetime.start.p0(i64 24, ptr nonnull %4) #21
  call void @llvm.va_start.p0(ptr nonnull %4)
  call void @llvm.lifetime.start.p0(i64 8, ptr nonnull %3)
  store i64 %0, ptr %3, align 8, !tbaa !7
  %5 = call i64 @rb_string_value(ptr noundef nonnull %3) #21
  %6 = load i64, ptr %3, align 8, !tbaa !7
  call void @rb_str_modify(i64 noundef %6) #21
  %7 = load i64, ptr %3, align 8, !tbaa !7
  %8 = inttoptr i64 %7 to ptr
  %9 = load i64, ptr %8, align 8, !tbaa !11, !noalias !111
  %10 = and i64 %9, 8192
  %.not.i.i.i = icmp eq i64 %10, 0
  %11 = getelementptr inbounds nuw i8, ptr %8, i64 24
  br i1 %.not.i.i.i, label %rb_str_vcatf.exit, label %12

12:                                               ; preds = %2
  %.sroa.5.0.copyload.i.i = load ptr, ptr %11, align 8
  br label %rb_str_vcatf.exit

rb_str_vcatf.exit:                                ; preds = %2, %12
  %.sroa.5.0.i.i = phi ptr [ %.sroa.5.0.copyload.i.i, %12 ], [ %11, %2 ]
  %.sroa.3.0.in.i.i = getelementptr inbounds nuw i8, ptr %8, i64 16
  %.sroa.3.0.i.i = load i64, ptr %.sroa.3.0.in.i.i, align 8, !tbaa !7
  %13 = getelementptr i8, ptr %.sroa.5.0.i.i, i64 %.sroa.3.0.i.i
  call fastcc void @ruby_vsprintf0(i64 noundef %7, ptr noundef %13, ptr noundef nonnull %1, ptr noundef nonnull %4)
  %14 = load i64, ptr %3, align 8, !tbaa !7
  call void @llvm.lifetime.end.p0(i64 8, ptr nonnull %3)
  call void @llvm.va_end.p0(ptr nonnull %4)
  call void @llvm.lifetime.end.p0(i64 24, ptr nonnull %4) #21
  ret i64 %14
}